target datalayout = "e-m:e-p270:32:32-p271:32:32-p272:64:64-i64:64-i128:128-f80:128-n8:16:32:64-S128"
target triple = "x86_64-pc-linux-gnu"

; Function Attrs: mustprogress uwtable
define noundef zeroext i1 @_ZNK10open_spiel12connect_four16ConnectFourState11HasLineFromEiii(ptr noundef nonnull align 8 dereferenceable(236) %0, i32 noundef %1, i32 noundef %2, i32 noundef %3) #4 align 2 {
  %5 = alloca ptr, align 8
  %6 = alloca i32, align 4
  %7 = alloca i32, align 4
  %8 = alloca i32, align 4
  store ptr %0, ptr %5, align 8
  store i32 %1, ptr %6, align 4
  store i32 %2, ptr %7, align 4
  store i32 %3, ptr %8, align 4
  %9 = load ptr, ptr %5, align 8
  %10 = load i32, ptr %6, align 4
  %11 = load i32, ptr %7, align 4
  %12 = load i32, ptr %8, align 4
  %13 = call noundef zeroext i1 @_ZNK10open_spiel12connect_four16ConnectFourState22HasLineFromInDirectionEiiiii(ptr noundef nonnull align 8 dereferenceable(236) %9, i32 noundef %10, i32 noundef %11, i32 noundef %12, i32 noundef 0, i32 noundef 1)
  br i1 %13, label %29, label %14

14:                                               ; preds = %4
  %15 = load i32, ptr %6, align 4
  %16 = load i32, ptr %7, align 4
  %17 = load i32, ptr %8, align 4
  %18 = call noundef zeroext i1 @_ZNK10open_spiel12connect_four16ConnectFourState22HasLineFromInDirectionEiiiii(ptr noundef nonnull align 8 dereferenceable(236) %9, i32 noundef %15, i32 noundef %16, i32 noundef %17, i32 noundef -1, i32 noundef -1)
  br i1 %18, label %29, label %19

19:                                               ; preds = %14
  %20 = load i32, ptr %6, align 4
  %21 = load i32, ptr %7, align 4
  %22 = load i32, ptr %8, align 4
  %23 = call noundef zeroext i1 @_ZNK10open_spiel12connect_four16ConnectFourState22HasLineFromInDirectionEiiiii(ptr noundef nonnull align 8 dereferenceable(236) %9, i32 noundef %20, i32 noundef %21, i32 noundef %22, i32 noundef -1, i32 noundef 0)
  br i1 %23, label %29, label %24

24:                                               ; preds = %19
  %25 = load i32, ptr %6, align 4
  %26 = load i32, ptr %7, align 4
  %27 = load i32, ptr %8, align 4
  %28 = call noundef zeroext i1 @_ZNK10open_spiel12connect_four16ConnectFourState22HasLineFromInDirectionEiiiii(ptr noundef nonnull align 8 dereferenceable(236) %9, i32 noundef %25, i32 noundef %26, i32 noundef %27, i32 noundef -1, i32 noundef 1)
  br label %29

29:                                               ; preds = %24, %19, %14, %4
  %30 = phi i1 [ true, %19 ], [ true, %14 ], [ true, %4 ], [ %28, %24 ]
  ret i1 %30
}