; Function Attrs: mustprogress uwtable
define noundef zeroext i1 @_ZNK10open_spiel12connect_four16ConnectFourState11HasLineFromEiii(ptr noundef nonnull readonly align 8 captures(none) dereferenceable(236) %0, i32 noundef %1, i32 noundef %2, i32 noundef %3) local_unnamed_addr #3 align 2 {
  %5 = tail call noundef zeroext i1 @_ZNK10open_spiel12connect_four16ConnectFourState22HasLineFromInDirectionEiiiii(ptr noundef nonnull align 8 dereferenceable(236) %0, i32 noundef %1, i32 noundef %2, i32 noundef %3, i32 noundef 0, i32 noundef 1)
  br i1 %5, label %12, label %6

6:                                                ; preds = %4
  %7 = tail call noundef zeroext i1 @_ZNK10open_spiel12connect_four16ConnectFourState22HasLineFromInDirectionEiiiii(ptr noundef nonnull align 8 dereferenceable(236) %0, i32 noundef %1, i32 noundef %2, i32 noundef %3, i32 noundef -1, i32 noundef -1)
  br i1 %7, label %12, label %8

8:                                                ; preds = %6
  %9 = tail call noundef zeroext i1 @_ZNK10open_spiel12connect_four16ConnectFourState22HasLineFromInDirectionEiiiii(ptr noundef nonnull align 8 dereferenceable(236) %0, i32 noundef %1, i32 noundef %2, i32 noundef %3, i32 noundef -1, i32 noundef 0)
  br i1 %9, label %12, label %10

10:                                               ; preds = %8
  %11 = tail call noundef zeroext i1 @_ZNK10open_spiel12connect_four16ConnectFourState22HasLineFromInDirectionEiiiii(ptr noundef nonnull align 8 dereferenceable(236) %0, i32 noundef %1, i32 noundef %2, i32 noundef %3, i32 noundef -1, i32 noundef 1)
  br label %12

12:                                               ; preds = %10, %8, %6, %4
  %13 = phi i1 [ true, %8 ], [ true, %6 ], [ true, %4 ], [ %11, %10 ]
  ret i1 %13
}